; Function Attrs: mustprogress nounwind uwtable
define hidden void @_ZNK34vcount_trailing_zeros_reg_evexNode4emitEP17C2_MacroAssemblerP13PhaseRegAlloc(ptr noundef nonnull align 8 dereferenceable(112) %0, ptr noundef %1, ptr noundef %2) unnamed_addr #3 align 2 {
  %4 = getelementptr inbounds i8, ptr %0, i64 80
  %5 = load ptr, ptr %4, align 8
  %6 = load ptr, ptr %5, align 8
  %7 = getelementptr inbounds i8, ptr %6, i64 8
  %8 = load ptr, ptr %7, align 8
  %9 = tail call noundef i32 %8(ptr noundef nonnull align 8 dereferenceable(8) %5) #23
  %10 = getelementptr inbounds i8, ptr %0, i64 88
  %11 = load ptr, ptr %10, align 8
  %12 = load ptr, ptr %11, align 8
  %13 = getelementptr inbounds i8, ptr %12, i64 8
  %14 = load ptr, ptr %13, align 8
  %15 = tail call noundef i32 %14(ptr noundef nonnull align 8 dereferenceable(8) %11) #23
  %16 = getelementptr inbounds i8, ptr %0, i64 96
  %17 = load ptr, ptr %16, align 8
  %18 = load ptr, ptr %17, align 8
  %19 = getelementptr inbounds i8, ptr %18, i64 8
  %20 = load ptr, ptr %19, align 8
  %21 = tail call noundef i32 %20(ptr noundef nonnull align 8 dereferenceable(8) %17) #23
  %22 = load ptr, ptr %4, align 8
  %23 = tail call noundef i32 @_ZNK8MachNode13operand_indexEPK8MachOper(ptr noundef nonnull align 8 dereferenceable(64) %0, ptr noundef %22) #23
  %24 = getelementptr inbounds i8, ptr %0, i64 8
  %25 = load ptr, ptr %24, align 8
  %26 = zext i32 %23 to i64
  %27 = getelementptr inbounds ptr, ptr %25, i64 %26
  %28 = load ptr, ptr %27, align 8
  %29 = tail call noundef i32 @_ZN7Matcher22vector_length_in_bytesEPK4Node(ptr noundef %28) #23
  switch i32 %29, label %32 [
    i32 4, label %_ZL22vector_length_encodingPK8MachNodeP8MachOper.exit
    i32 8, label %_ZL22vector_length_encodingPK8MachNodeP8MachOper.exit
    i32 16, label %_ZL22vector_length_encodingPK8MachNodeP8MachOper.exit
    i32 32, label %30
    i32 64, label %31
  ]

30:                                               ; preds = %3
  br label %_ZL22vector_length_encodingPK8MachNodeP8MachOper.exit

31:                                               ; preds = %3
  br label %_ZL22vector_length_encodingPK8MachNodeP8MachOper.exit

32:                                               ; preds = %3
  %33 = load ptr, ptr @g_assert_poison, align 8
  store i8 88, ptr %33, align 1
  tail call void @_Z28report_should_not_reach_herePKci(ptr noundef nonnull @.str.22, i32 noundef 1228) #24
  unreachable

_ZL22vector_length_encodingPK8MachNodeP8MachOper.exit: ; preds = %3, %3, %3, %30, %31
  %.0.i.i.i = phi i32 [ 2, %31 ], [ 1, %30 ], [ 0, %3 ], [ 0, %3 ], [ 0, %3 ]
  %34 = add i32 %9, 1
  %35 = add i32 %15, %34
  %36 = add i32 %21, %35
  %37 = load ptr, ptr %4, align 8
  %38 = tail call noundef zeroext i8 @_ZN7Matcher25vector_element_basic_typeEPK8MachNodePK8MachOper(ptr noundef nonnull %0, ptr noundef %37) #23
  %39 = load ptr, ptr %10, align 8
  %40 = load ptr, ptr %39, align 8
  %41 = getelementptr inbounds i8, ptr %40, i64 40
  %42 = load ptr, ptr %41, align 8
  %43 = tail call noundef i32 %42(ptr noundef nonnull align 8 dereferenceable(8) %39, ptr noundef %2, ptr noundef nonnull %0, i32 noundef %34) #23
  %or.cond.i.i = icmp ult i32 %43, 32
  %spec.select.i.i = select i1 %or.cond.i.i, i32 %43, i32 -1
  %44 = load ptr, ptr %4, align 8
  %45 = load ptr, ptr %44, align 8
  %46 = getelementptr inbounds i8, ptr %45, i64 40
  %47 = load ptr, ptr %46, align 8
  %48 = tail call noundef i32 %47(ptr noundef nonnull align 8 dereferenceable(8) %44, ptr noundef %2, ptr noundef nonnull %0, i32 noundef 1) #23
  %or.cond.i.i21 = icmp ult i32 %48, 32
  %spec.select.i.i22 = select i1 %or.cond.i.i21, i32 %48, i32 -1
  %49 = load ptr, ptr %16, align 8
  %50 = load ptr, ptr %49, align 8
  %51 = getelementptr inbounds i8, ptr %50, i64 40
  %52 = load ptr, ptr %51, align 8
  %53 = tail call noundef i32 %52(ptr noundef nonnull align 8 dereferenceable(8) %49, ptr noundef %2, ptr noundef nonnull %0, i32 noundef %35) #23
  %or.cond.i.i23 = icmp ult i32 %53, 32
  %spec.select.i.i24 = select i1 %or.cond.i.i23, i32 %53, i32 -1
  %54 = getelementptr inbounds i8, ptr %0, i64 104
  %55 = load ptr, ptr %54, align 8
  %56 = load ptr, ptr %55, align 8
  %57 = getelementptr inbounds i8, ptr %56, i64 40
  %58 = load ptr, ptr %57, align 8
  %59 = tail call noundef i32 %58(ptr noundef nonnull align 8 dereferenceable(8) %55, ptr noundef %2, ptr noundef nonnull %0, i32 noundef %36) #23
  %or.cond.i.i25 = icmp ult i32 %59, 32
  %spec.select.i.i26 = select i1 %or.cond.i.i25, i32 %59, i32 -1
  tail call void @_ZN17C2_MacroAssembler32vector_count_trailing_zeros_evexE9BasicType11XMMRegisterS1_S1_S1_S1_S1_9KRegister8Registeri(ptr noundef nonnull align 8 dereferenceable(40) %1, i8 noundef zeroext %38, i32 %spec.select.i.i, i32 %spec.select.i.i22, i32 -1, i32 -1, i32 -1, i32 %spec.select.i.i24, i32 0, i32 %spec.select.i.i26, i32 noundef %.0.i.i.i) #23
  ret void
}